target datalayout = "e-m:e-p270:32:32-p271:32:32-p272:64:64-i64:64-i128:128-f80:128-n8:16:32:64-S128"
target triple = "x86_64-pc-linux-gnu"

%struct._asn1_ctx_t = type { i32, i32, i8, ptr, ptr, ptr, ptr, ptr, %struct.anon.0, %struct.anon.3, %struct.anon.4, ptr }
%struct.anon.0 = type { i32, i8, i8, i8, ptr, ptr, i32, i32, ptr, ptr, ptr, %union.anon }
%union.anon = type { %struct.anon.1 }
%struct.anon.1 = type { ptr }
%struct.anon.3 = type { ptr, ptr, ptr }
%struct.anon.4 = type { i32, i8, ptr, i32, i32, ptr, ptr, ptr, %union.anon.5 }
%union.anon.5 = type { %struct.anon.6 }
%struct.anon.6 = type { ptr }

@hf_nbap_RL_Set_InformationItem_DM_Rprt_PDU = internal global i32 0, align 4
@ett_nbap_RL_Set_InformationItem_DM_Rprt = internal global i32 0, align 4

; Function Attrs: null_pointer_is_valid sspstrong uwtable
define internal i32 @dissect_nbap_RL_Set_InformationItem_DM_Rprt(ptr noundef %0, i32 noundef %1, ptr noundef %2, ptr noundef %3, i32 noundef %4) #0 {
  %6 = alloca ptr, align 8
  %7 = alloca i32, align 4
  %8 = alloca ptr, align 8
  %9 = alloca ptr, align 8
  %10 = alloca i32, align 4
  store ptr %0, ptr %6, align 8
  store i32 %1, ptr %7, align 4
  store ptr %2, ptr %8, align 8
  store ptr %3, ptr %9, align 8
  store i32 %4, ptr %10, align 4
  %11 = load ptr, ptr %6, align 8
  %12 = load i32, ptr %7, align 4
  %13 = load ptr, ptr %8, align 8
  %14 = load ptr, ptr %9, align 8
  %15 = load i32, ptr %10, align 4
  %16 = load i32, ptr @ett_nbap_RL_Set_InformationItem_DM_Rprt, align 4
  %17 = call i32 @dissect_per_sequence(ptr noundef %11, i32 noundef %12, ptr noundef %13, ptr noundef %14, i32 noundef %15, i32 noundef %16, ptr noundef @RL_Set_InformationItem_DM_Rprt_sequence)
  store i32 %17, ptr %7, align 4
  %18 = load i32, ptr %7, align 4
  ret i32 %18
}

; Function Attrs: null_pointer_is_valid sspstrong uwtable
define internal i32 @dissect_RL_Set_InformationItem_DM_Rprt_PDU(ptr noundef %0, ptr noundef %1, ptr noundef %2, ptr noundef %3) #0 {
  %5 = alloca ptr, align 8
  %6 = alloca ptr, align 8
  %7 = alloca ptr, align 8
  %8 = alloca ptr, align 8
  %9 = alloca i32, align 4
  %10 = alloca %struct._asn1_ctx_t, align 8
  store ptr %0, ptr %5, align 8
  store ptr %1, ptr %6, align 8
  store ptr %2, ptr %7, align 8
  store ptr %3, ptr %8, align 8
  call void @llvm.lifetime.start.p0(i64 4, ptr %9) #13
  store i32 0, ptr %9, align 4
  call void @llvm.lifetime.start.p0(i64 208, ptr %10) #13
  %11 = load ptr, ptr %6, align 8
  call void @asn1_ctx_init(ptr noundef %10, i32 noundef 1, i1 noundef zeroext true, ptr noundef %11)
  %12 = load ptr, ptr %5, align 8
  %13 = load i32, ptr %9, align 4
  %14 = load ptr, ptr %7, align 8
  %15 = load i32, ptr @hf_nbap_RL_Set_InformationItem_DM_Rprt_PDU, align 4
  %16 = call i32 @dissect_nbap_RL_Set_InformationItem_DM_Rprt(ptr noundef %12, i32 noundef %13, ptr noundef %10, ptr noundef %14, i32 noundef %15)
  store i32 %16, ptr %9, align 4
  %17 = load i32, ptr %9, align 4
  %18 = add i32 %17, 7
  store i32 %18, ptr %9, align 4
  %19 = load i32, ptr %9, align 4
  %20 = ashr i32 %19, 3
  store i32 %20, ptr %9, align 4
  %21 = load i32, ptr %9, align 4
  call void @llvm.lifetime.end.p0(i64 208, ptr %10) #13
  call void @llvm.lifetime.end.p0(i64 4, ptr %9) #13
  ret i32 %21
}